; Function Attrs: nounwind uwtable
define internal i32 @cff_get_glyph_data(ptr nocapture noundef readonly %0, i32 noundef %1, ptr noundef %2, ptr nocapture noundef writeonly %3) #4 {
  %5 = alloca %struct.FT_Data_, align 8
  %6 = getelementptr inbounds i8, ptr %0, i64 240
  %7 = load ptr, ptr %6, align 8
  %8 = getelementptr inbounds i8, ptr %7, i64 104
  %9 = load ptr, ptr %8, align 8
  %.not = icmp eq ptr %9, null
  br i1 %.not, label %20, label %10

10:                                               ; preds = %4
  %11 = load ptr, ptr %9, align 8
  %12 = load ptr, ptr %11, align 8
  %13 = getelementptr inbounds i8, ptr %9, i64 8
  %14 = load ptr, ptr %13, align 8
  %15 = call i32 %12(ptr noundef %14, i32 noundef %1, ptr noundef nonnull %5) #20
  %16 = load ptr, ptr %5, align 8
  store ptr %16, ptr %2, align 8
  %17 = getelementptr inbounds i8, ptr %5, i64 8
  %18 = load i32, ptr %17, align 8
  %19 = zext i32 %18 to i64
  store i64 %19, ptr %3, align 8
  br label %25

20:                                               ; preds = %4
  %21 = getelementptr inbounds i8, ptr %0, i64 1168
  %22 = load ptr, ptr %21, align 8
  %23 = getelementptr inbounds i8, ptr %22, i64 1336
  %24 = tail call fastcc i32 @cff_index_access_element(ptr noundef nonnull %23, i32 noundef %1, ptr noundef %2, ptr noundef %3)
  br label %25

25:                                               ; preds = %20, %10
  %.0 = phi i32 [ %15, %10 ], [ %24, %20 ]
  ret i32 %.0
}